target datalayout = "e-m:e-p270:32:32-p271:32:32-p272:64:64-i64:64-i128:128-f80:128-n8:16:32:64-S128"
target triple = "x86_64-pc-linux-gnu"

%union.pthread_mutex_t = type { %struct.__pthread_mutex_s }
%struct.__pthread_mutex_s = type { i32, i32, i32, i32, i32, i16, i16, %struct.__pthread_internal_list }
%struct.__pthread_internal_list = type { ptr, ptr }
%union.pthread_cond_t = type { %struct.__pthread_cond_s }
%struct.__pthread_cond_s = type { %union.__atomic_wide_counter, %union.__atomic_wide_counter, [2 x i32], [2 x i32], i32, i32, [2 x i32] }
%union.__atomic_wide_counter = type { i64 }
%struct.anon.1 = type { i32 }
%struct.anon.2 = type { i32, i32, i64, i8 }

@bio_mutex = internal global [3 x %union.pthread_mutex_t] zeroinitializer, align 16
@bio_newjob_cond = internal global [3 x %union.pthread_cond_t] zeroinitializer, align 16
@bio_jobs = internal global [3 x ptr] zeroinitializer, align 16
@bio_job_to_worker = internal global [7 x i32] [i32 0, i32 1, i32 2, i32 1, i32 0, i32 1, i32 2], align 16
@bio_jobs_counter = internal global [7 x i64] zeroinitializer, align 16

; Function Attrs: nounwind uwtable
define dso_local void @bioSubmitJob(i32 noundef %0, ptr noundef %1) #0 {
  %3 = alloca i32, align 4
  %4 = alloca ptr, align 8
  %5 = alloca i64, align 8
  store i32 %0, ptr %3, align 4, !tbaa !42
  store ptr %1, ptr %4, align 8, !tbaa !65
  %6 = load i32, ptr %3, align 4, !tbaa !42
  %7 = load ptr, ptr %4, align 8, !tbaa !65
  %8 = getelementptr inbounds nuw %struct.anon.1, ptr %7, i32 0, i32 0
  store i32 %6, ptr %8, align 8, !tbaa !67
  call void @llvm.lifetime.start.p0(i64 8, ptr %5) #9
  %9 = load i32, ptr %3, align 4, !tbaa !42
  %10 = sext i32 %9 to i64
  %11 = getelementptr inbounds [7 x i32], ptr @bio_job_to_worker, i64 0, i64 %10
  %12 = load i32, ptr %11, align 4, !tbaa !42
  %13 = zext i32 %12 to i64
  store i64 %13, ptr %5, align 8, !tbaa !5
  %14 = load i64, ptr %5, align 8, !tbaa !5
  %15 = getelementptr inbounds nuw [3 x %union.pthread_mutex_t], ptr @bio_mutex, i64 0, i64 %14
  %16 = call i32 @pthread_mutex_lock(ptr noundef %15) #9
  %17 = load i64, ptr %5, align 8, !tbaa !5
  %18 = getelementptr inbounds nuw [3 x ptr], ptr @bio_jobs, i64 0, i64 %17
  %19 = load ptr, ptr %18, align 8, !tbaa !9
  %20 = load ptr, ptr %4, align 8, !tbaa !65
  %21 = call ptr @listAddNodeTail(ptr noundef %19, ptr noundef %20)
  %22 = load i32, ptr %3, align 4, !tbaa !42
  %23 = sext i32 %22 to i64
  %24 = getelementptr inbounds [7 x i64], ptr @bio_jobs_counter, i64 0, i64 %23
  %25 = load i64, ptr %24, align 8, !tbaa !5
  %26 = add i64 %25, 1
  store i64 %26, ptr %24, align 8, !tbaa !5
  %27 = load i64, ptr %5, align 8, !tbaa !5
  %28 = getelementptr inbounds nuw [3 x %union.pthread_cond_t], ptr @bio_newjob_cond, i64 0, i64 %27
  %29 = call i32 @pthread_cond_signal(ptr noundef %28) #9
  %30 = load i64, ptr %5, align 8, !tbaa !5
  %31 = getelementptr inbounds nuw [3 x %union.pthread_mutex_t], ptr @bio_mutex, i64 0, i64 %30
  %32 = call i32 @pthread_mutex_unlock(ptr noundef %31) #9
  call void @llvm.lifetime.end.p0(i64 8, ptr %5) #9
  ret void
}

; Function Attrs: nounwind uwtable
define dso_local void @bioCreateCloseAofJob(i32 noundef %0, i64 noundef %1, i32 noundef %2) #0 {
  %4 = alloca i32, align 4
  %5 = alloca i64, align 8
  %6 = alloca i32, align 4
  %7 = alloca ptr, align 8
  store i32 %0, ptr %4, align 4, !tbaa !42
  store i64 %1, ptr %5, align 8, !tbaa !68
  store i32 %2, ptr %6, align 4, !tbaa !42
  call void @llvm.lifetime.start.p0(i64 8, ptr %7) #9
  %8 = call noalias ptr @zmalloc(i64 noundef 32) #12
  store ptr %8, ptr %7, align 8, !tbaa !65
  %9 = load i32, ptr %4, align 4, !tbaa !42
  %10 = load ptr, ptr %7, align 8, !tbaa !65
  %11 = getelementptr inbounds nuw %struct.anon.2, ptr %10, i32 0, i32 1
  store i32 %9, ptr %11, align 4, !tbaa !67
  %12 = load i64, ptr %5, align 8, !tbaa !68
  %13 = load ptr, ptr %7, align 8, !tbaa !65
  %14 = getelementptr inbounds nuw %struct.anon.2, ptr %13, i32 0, i32 2
  store i64 %12, ptr %14, align 8, !tbaa !67
  %15 = load ptr, ptr %7, align 8, !tbaa !65
  %16 = getelementptr inbounds nuw %struct.anon.2, ptr %15, i32 0, i32 3
  %17 = load i8, ptr %16, align 8
  %18 = and i8 %17, -2
  %19 = or i8 %18, 1
  store i8 %19, ptr %16, align 8
  %20 = load i32, ptr %6, align 4, !tbaa !42
  %21 = load ptr, ptr %7, align 8, !tbaa !65
  %22 = getelementptr inbounds nuw %struct.anon.2, ptr %21, i32 0, i32 3
  %23 = trunc i32 %20 to i8
  %24 = load i8, ptr %22, align 8
  %25 = and i8 %23, 1
  %26 = shl i8 %25, 1
  %27 = and i8 %24, -3
  %28 = or i8 %27, %26
  store i8 %28, ptr %22, align 8
  %29 = load ptr, ptr %7, align 8, !tbaa !65
  call void @bioSubmitJob(i32 noundef 3, ptr noundef %29)
  call void @llvm.lifetime.end.p0(i64 8, ptr %7) #9
  ret void
}